Certificate:
    Data:
        Version: 3 (0x2)
        Serial Number: 4 (0x4)
    Signature Algorithm: sha256WithRSAEncryption
        Issuer: C=MX, ST=CDMX, L=Polanco, O=AMX, OU=AMXGADT, CN=AMXGADT/name=AMXGADT/emailAddress=amxgadt@amxdigital.com
        Validity
            Not Before: Feb 14 20:18:18 2020 GMT
            Not After : Feb 11 20:18:18 2030 GMT
        Subject: C=MX, ST=Ciudad de Mexico, L=Polanco, O=America Movil, OU=America Movil, CN=amx/emailAddress=kev.gomez@hotmail.com
        Subject Public Key Info:
            Public Key Algorithm: rsaEncryption
                Public-Key: (2048 bit)
                Modulus:
                    00:9b:4d:48:fc:76:24:46:ff:53:35:ba:42:84:8e:
                    4b:5a:b3:ab:1b:4f:88:b4:df:37:80:31:bc:33:ae:
                    c4:f2:9b:c3:30:48:a0:a1:2b:c6:de:af:26:c5:4f:
                    bb:73:f1:79:fc:14:dc:fc:ff:da:12:a7:2b:2b:58:
                    b7:08:f2:78:35:87:a0:96:22:18:22:32:5c:03:31:
                    f8:8a:a0:2f:46:a3:fa:ff:e5:e5:4b:77:44:73:b7:
                    32:88:06:2c:15:18:2e:23:e8:2f:ab:ff:23:48:f8:
                    bd:57:6d:09:b9:66:56:7c:5c:34:bb:4a:77:88:76:
                    c0:ae:1d:14:d1:f0:71:67:63:71:f8:51:41:8f:6b:
                    1f:fb:36:8e:b8:31:bf:de:a0:f2:ff:c0:92:39:78:
                    fb:97:b1:00:8f:3b:d6:e0:0e:ad:75:b4:2f:de:cd:
                    57:18:eb:50:79:8a:b6:a8:c9:51:21:1c:09:b4:63:
                    80:30:1b:0d:2a:ee:51:09:3f:56:84:48:99:92:4f:
                    f5:9d:74:d8:69:f7:df:6f:70:df:b5:6f:0c:95:4d:
                    a6:34:96:36:19:bf:82:05:83:be:74:8f:d3:fe:76:
                    a6:0f:de:84:3d:79:7a:71:88:e7:7d:5b:f3:ee:13:
                    ef:8b:8e:23:bd:9e:5c:91:7f:f7:55:21:6a:e2:39:
                    a6:7d
                Exponent: 65537 (0x10001)
        X509v3 extensions:
            X509v3 Basic Constraints: 
                CA:FALSE
            Netscape Comment: 
                Easy-RSA Generated Certificate
            X509v3 Subject Key Identifier: 
                48:C9:FB:36:1F:45:A9:CF:FD:42:35:09:71:B6:B9:B6:E1:96:16:6D
            X509v3 Authority Key Identifier: 
                keyid:E8:7D:59:6A:76:3D:A0:55:DA:11:32:73:53:F3:6E:C7:0B:A0:D9:B8
                DirName:/C=MX/ST=CDMX/L=Polanco/O=AMX/OU=AMXGADT/CN=AMXGADT/name=AMXGADT/emailAddress=amxgadt@amxdigital.com
                serial:B6:C4:60:9E:BE:F4:72:17

            X509v3 Extended Key Usage: 
                TLS Web Client Authentication
            X509v3 Key Usage: 
                Digital Signature
    Signature Algorithm: sha256WithRSAEncryption
         3b:a2:26:20:d7:a6:0c:ca:33:d8:29:69:27:41:3e:6f:08:8a:
         15:96:32:79:98:98:c4:a8:1b:f4:48:04:c2:a6:c6:45:93:d4:
         09:87:ce:24:be:15:5c:af:ea:3e:5d:f7:49:da:d5:56:08:eb:
         71:f5:7b:1a:4c:3a:a1:d7:de:4a:4a:ef:a5:09:ae:a9:01:2f:
         03:84:03:fd:da:13:76:6a:e1:9e:12:84:4e:5e:25:79:41:69:
         7c:6c:09:58:15:b3:75:1e:4e:f2:fa:4a:34:9d:4b:24:2c:2f:
         d2:e6:71:5b:3a:f3:3a:66:8a:61:fb:fe:0f:82:52:f4:1a:c5:
         54:ac:9a:44:2c:1a:4f:fe:ad:87:6c:1b:76:7e:57:40:04:b4:
         17:f8:34:77:87:63:9b:1a:13:f6:bf:48:ef:26:07:0e:8b:c6:
         52:31:24:87:5a:23:c0:e4:63:fd:09:d5:85:39:20:eb:59:56:
         99:88:44:55:83:ef:eb:89:3a:b3:a0:65:78:fc:24:fc:13:42:
         45:cd:b1:76:b1:e2:4a:8e:6b:b9:17:4f:2b:9d:57:6c:d4:01:
         bc:e9:8a:df:98:0f:f0:d6:8c:bd:37:e2:fb:57:31:e6:00:b6:
         4c:c4:fd:ce:63:c3:24:f0:16:f0:f2:0c:50:02:95:42:28:aa:
         97:91:7f:1e:c1:85:92:c2:ca:6b:cc:81:01:05:ef:b3:75:e3:
         08:01:54:a1:50:cb:b7:dc:7b:1c:cb:b0:87:15:53:ea:9d:bb:
         bc:d2:b9:04:18:14:78:53:7a:dd:6d:05:8d:d0:eb:4b:8b:bc:
         05:19:23:74:f3:94:e6:4a:d0:f9:f3:6e:49:6c:45:0e:7c:1f:
         ed:fd:8e:08:74:00:65:ca:af:d1:c9:3c:3f:3d:11:52:90:75:
         20:ef:d4:c9:54:b5:45:d3:c4:be:f2:02:43:b4:98:ec:d2:b2:
         e0:1a:bc:d3:08:5c:cf:83:7b:a0:af:1f:fc:ef:40:2f:44:11:
         3f:71:6a:3d:f6:b9:7c:80:b8:dd:05:44:53:85:b0:61:87:1f:
         96:4e:21:27:1c:c3:30:c6:48:98:12:73:0f:65:85:41:34:ea:
         a8:91:45:fa:09:9b:be:45:a5:39:87:b5:d5:da:64:34:f0:96:
         0b:65:c4:b2:ea:3f:52:1b:e8:b9:01:75:14:70:06:06:e3:58:
         6c:c6:c1:6b:4b:81:3e:3a:f9:f2:48:b5:11:eb:a6:f3:af:f0:
         f5:ef:3e:72:f9:db:76:95:f5:5a:7d:e0:5b:56:8d:e5:e1:de:
         ec:a9:7a:db:8c:2e:80:59:1d:34:26:bd:7a:31:94:be:be:84:
         42:51:17:a3:f4:d2:34:b4
-----BEGIN CERTIFICATE-----
MIIGBjCCA+6gAwIBAgIBBDANBgkqhkiG9w0BAQsFADCBmTELMAkGA1UEBhMCTVgx
DTALBgNVBAgTBENETVgxEDAOBgNVBAcTB1BvbGFuY28xDDAKBgNVBAoTA0FNWDEQ
MA4GA1UECxMHQU1YR0FEVDEQMA4GA1UEAxMHQU1YR0FEVDEQMA4GA1UEKRMHQU1Y
R0FEVDElMCMGCSqGSIb3DQEJARYWYW14Z2FkdEBhbXhkaWdpdGFsLmNvbTAeFw0y
MDAyMTQyMDE4MThaFw0zMDAyMTEyMDE4MThaMIGeMQswCQYDVQQGEwJNWDEZMBcG
A1UECAwQQ2l1ZGFkIGRlIE1leGljbzEQMA4GA1UEBwwHUG9sYW5jbzEWMBQGA1UE
CgwNQW1lcmljYSBNb3ZpbDEWMBQGA1UECwwNQW1lcmljYSBNb3ZpbDEMMAoGA1UE
AwwDYW14MSQwIgYJKoZIhvcNAQkBFhVrZXYuZ29tZXpAaG90bWFpbC5jb20wggEi
MA0GCSqGSIb3DQEBAQUAA4IBDwAwggEKAoIBAQCbTUj8diRG/1M1ukKEjktas6sb
T4i03zeAMbwzrsTym8MwSKChK8berybFT7tz8Xn8FNz8/9oSpysrWLcI8ng1h6CW
IhgiMlwDMfiKoC9Go/r/5eVLd0RztzKIBiwVGC4j6C+r/yNI+L1XbQm5ZlZ8XDS7
SneIdsCuHRTR8HFnY3H4UUGPax/7No64Mb/eoPL/wJI5ePuXsQCPO9bgDq11tC/e
zVcY61B5iraoyVEhHAm0Y4AwGw0q7lEJP1aESJmST/WddNhp999vcN+1bwyVTaY0
ljYZv4IFg750j9P+dqYP3oQ9eXpxiOd9W/PuE++LjiO9nlyRf/dVIWriOaZ9AgMB
AAGjggFQMIIBTDAJBgNVHRMEAjAAMC0GCWCGSAGG+EIBDQQgFh5FYXN5LVJTQSBH
ZW5lcmF0ZWQgQ2VydGlmaWNhdGUwHQYDVR0OBBYEFEjJ+zYfRanP/UI1CXG2ubbh
lhZtMIHOBgNVHSMEgcYwgcOAFOh9WWp2PaBV2hEyc1PzbscLoNm4oYGfpIGcMIGZ
MQswCQYDVQQGEwJNWDENMAsGA1UECBMEQ0RNWDEQMA4GA1UEBxMHUG9sYW5jbzEM
MAoGA1UEChMDQU1YMRAwDgYDVQQLEwdBTVhHQURUMRAwDgYDVQQDEwdBTVhHQURU
MRAwDgYDVQQpEwdBTVhHQURUMSUwIwYJKoZIhvcNAQkBFhZhbXhnYWR0QGFteGRp
Z2l0YWwuY29tggkAtsRgnr70chcwEwYDVR0lBAwwCgYIKwYBBQUHAwIwCwYDVR0P
BAQDAgeAMA0GCSqGSIb3DQEBCwUAA4ICAQA7oiYg16YMyjPYKWknQT5vCIoVljJ5
mJjEqBv0SATCpsZFk9QJh84kvhVcr+o+XfdJ2tVWCOtx9XsaTDqh195KSu+lCa6p
AS8DhAP92hN2auGeEoROXiV5QWl8bAlYFbN1Hk7y+ko0nUskLC/S5nFbOvM6Zoph
+/4PglL0GsVUrJpELBpP/q2HbBt2fldABLQX+DR3h2ObGhP2v0jvJgcOi8ZSMSSH
WiPA5GP9CdWFOSDrWVaZiERVg+/riTqzoGV4/CT8E0JFzbF2seJKjmu5F08rnVds
1AG86YrfmA/w1oy9N+L7VzHmALZMxP3OY8Mk8Bbw8gxQApVCKKqXkX8ewYWSwspr
zIEBBe+zdeMIAVShUMu33Hscy7CHFVPqnbu80rkEGBR4U3rdbQWN0OtLi7wFGSN0
85TmStD5825JbEUOfB/t/Y4IdABlyq/RyTw/PRFSkHUg79TJVLVF08S+8gJDtJjs
0rLgGrzTCFzPg3ugrx/870AvRBE/cWo99rl8gLjdBURThbBhhx+WTiEnHMMwxkiY
EnMPZYVBNOqokUX6CZu+RaU5h7XV2mQ08JYLZcSy6j9SG+i5AXUUcAYG41hsxsFr
S4E+OvnySLUR66bzr/D17z5y+dt2lfVafeBbVo3l4d7sqXrbjC6AWR00Jr16MZS+
voRCURej9NI0tA==
-----END CERTIFICATE-----

