Certificate:
    Data:
        Version: 3 (0x2)
        Serial Number: 72 (0x48)
    Signature Algorithm: sha256WithRSAEncryption
        Issuer: C=MX, ST=CDMX, L=   , O=America Movil, OU=Canales Digitales, CN=America Movil CA/name=Master Canales Digitales CA/emailAddress=patricio@amxiniciativas.com
        Validity
            Not Before: Apr 15 22:42:34 2019 GMT
            Not After : Apr 12 22:42:34 2029 GMT
        Subject: C=MX, ST=Ciudad de Mexico, L=Polanco, O=America Movil, OU=America Movil, CN=amx/emailAddress=kev.gomez@hotmail.com
        Subject Public Key Info:
            Public Key Algorithm: rsaEncryption
                Public-Key: (2048 bit)
                Modulus:
                    00:9b:4d:48:fc:76:24:46:ff:53:35:ba:42:84:8e:
                    4b:5a:b3:ab:1b:4f:88:b4:df:37:80:31:bc:33:ae:
                    c4:f2:9b:c3:30:48:a0:a1:2b:c6:de:af:26:c5:4f:
                    bb:73:f1:79:fc:14:dc:fc:ff:da:12:a7:2b:2b:58:
                    b7:08:f2:78:35:87:a0:96:22:18:22:32:5c:03:31:
                    f8:8a:a0:2f:46:a3:fa:ff:e5:e5:4b:77:44:73:b7:
                    32:88:06:2c:15:18:2e:23:e8:2f:ab:ff:23:48:f8:
                    bd:57:6d:09:b9:66:56:7c:5c:34:bb:4a:77:88:76:
                    c0:ae:1d:14:d1:f0:71:67:63:71:f8:51:41:8f:6b:
                    1f:fb:36:8e:b8:31:bf:de:a0:f2:ff:c0:92:39:78:
                    fb:97:b1:00:8f:3b:d6:e0:0e:ad:75:b4:2f:de:cd:
                    57:18:eb:50:79:8a:b6:a8:c9:51:21:1c:09:b4:63:
                    80:30:1b:0d:2a:ee:51:09:3f:56:84:48:99:92:4f:
                    f5:9d:74:d8:69:f7:df:6f:70:df:b5:6f:0c:95:4d:
                    a6:34:96:36:19:bf:82:05:83:be:74:8f:d3:fe:76:
                    a6:0f:de:84:3d:79:7a:71:88:e7:7d:5b:f3:ee:13:
                    ef:8b:8e:23:bd:9e:5c:91:7f:f7:55:21:6a:e2:39:
                    a6:7d
                Exponent: 65537 (0x10001)
        X509v3 extensions:
            X509v3 Basic Constraints: 
                CA:FALSE
            Netscape Cert Type: 
                SSL Client, S/MIME
            Netscape Comment: 
                master-ca AMX
            X509v3 Subject Key Identifier: 
                48:C9:FB:36:1F:45:A9:CF:FD:42:35:09:71:B6:B9:B6:E1:96:16:6D
            X509v3 Authority Key Identifier: 
                keyid:7F:D2:2E:87:7A:A5:AC:D7:11:E6:25:39:A3:A8:00:5E:54:1D:9A:B7
                DirName:/C=MX/ST=CDMX/L=   /O=America Movil/OU=Canales Digitales/CN=America Movil CA/name=Master Canales Digitales CA/emailAddress=patricio@amxiniciativas.com
                serial:E5:DF:8C:FD:08:E5:8B:FC

            X509v3 Extended Key Usage: 
                TLS Web Client Authentication
            X509v3 Key Usage: 
                Digital Signature
    Signature Algorithm: sha256WithRSAEncryption
         bd:db:fd:8b:a5:4a:ba:ad:c3:6c:e8:58:46:5d:49:1b:0e:ae:
         fa:c2:74:f2:9a:20:c5:5f:2a:8d:7a:5a:3c:c6:10:78:42:55:
         25:64:79:e3:e6:b5:14:b6:98:6b:04:bc:91:a4:58:eb:45:cd:
         7c:94:ea:81:aa:99:4b:e2:76:94:d5:db:e1:2e:5a:0e:e9:1f:
         aa:72:de:74:1b:1c:80:42:f3:c0:6e:44:66:7c:de:a3:08:c4:
         3d:ce:dd:56:79:0f:d9:0c:7f:6e:9b:60:30:84:33:9d:4a:86:
         d5:12:25:a1:a1:62:59:e9:e6:b4:d2:ba:c4:b3:81:13:9a:20:
         82:68:a6:a6:d2:83:dd:39:1a:5a:d3:73:58:a7:26:eb:6e:31:
         5c:44:a7:d7:d9:3d:3c:ad:7f:92:14:4e:95:40:b8:0e:58:55:
         d2:44:a9:cf:88:70:34:3d:e2:1f:4c:59:04:6a:b1:9f:fc:54:
         43:e8:0f:71:8f:f8:20:ac:9d:6e:7a:68:68:2a:99:36:dc:49:
         bd:00:bb:c9:12:ae:a9:fa:a7:d1:06:d8:6b:ff:1c:0e:76:43:
         cc:55:2d:b8:a8:e8:27:65:b9:6e:46:3e:53:6b:73:60:c4:c8:
         4a:69:92:b6:ba:86:c9:de:02:cb:66:87:75:f3:8c:7d:42:8c:
         2c:d4:ca:e0:8c:e4:6b:6c:f8:d4:a1:43:b2:80:9b:a5:82:5b:
         61:1e:7c:fc:25:3a:b7:94:e9:2a:e2:d2:1e:14:0a:85:ee:18:
         60:49:ff:0e:98:9d:27:71:61:c2:90:e3:27:cf:44:a0:ed:4e:
         c9:85:1d:8f:68:02:d8:50:07:cf:1c:75:04:e1:f7:62:99:9b:
         de:80:c1:44:8a:98:40:c5:79:e7:18:64:e5:81:5f:63:85:d7:
         df:06:00:a0:f2:35:51:2c:53:41:c4:86:38:51:af:02:eb:47:
         73:39:a5:71:2e:b4:dc:96:08:0c:bf:fc:65:73:83:50:e4:73:
         11:06:0f:43:7b:ca:e2:3a:4a:7c:54:f2:dd:c3:00:1f:15:4d:
         14:21:65:28:a8:f5:7e:b6:01:4a:ad:3b:6c:7e:35:2c:90:00:
         4f:55:50:21:b1:d9:b1:52:2f:67:d5:f5:77:f7:0b:28:85:97:
         2a:4b:18:99:6e:bc:c6:93:06:88:85:c3:62:6a:b4:d0:0e:d2:
         19:30:7e:6f:ed:c7:2b:d5:ce:8a:8f:0c:a1:6b:4b:dc:26:ce:
         1b:2d:a3:a0:11:45:a9:87:94:94:f5:6f:a9:78:0e:59:27:ba:
         01:aa:63:e8:f2:4a:b7:ae:9b:a5:61:4a:b3:fc:4b:a0:0f:cb:
         40:e2:46:ba:9d:f2:df:88
-----BEGIN CERTIFICATE-----
MIIGbTCCBFWgAwIBAgIBSDANBgkqhkiG9w0BAQsFADCByzELMAkGA1UEBhMCTVgx
DTALBgNVBAgTBENETVgxDDAKBgNVBAcTAyAgIDEWMBQGA1UEChMNQW1lcmljYSBN
b3ZpbDEaMBgGA1UECxMRQ2FuYWxlcyBEaWdpdGFsZXMxGTAXBgNVBAMTEEFtZXJp
Y2EgTW92aWwgQ0ExJDAiBgNVBCkTG01hc3RlciBDYW5hbGVzIERpZ2l0YWxlcyBD
QTEqMCgGCSqGSIb3DQEJARYbcGF0cmljaW9AYW14aW5pY2lhdGl2YXMuY29tMB4X
DTE5MDQxNTIyNDIzNFoXDTI5MDQxMjIyNDIzNFowgZ4xCzAJBgNVBAYTAk1YMRkw
FwYDVQQIDBBDaXVkYWQgZGUgTWV4aWNvMRAwDgYDVQQHDAdQb2xhbmNvMRYwFAYD
VQQKDA1BbWVyaWNhIE1vdmlsMRYwFAYDVQQLDA1BbWVyaWNhIE1vdmlsMQwwCgYD
VQQDDANhbXgxJDAiBgkqhkiG9w0BCQEWFWtldi5nb21lekBob3RtYWlsLmNvbTCC
ASIwDQYJKoZIhvcNAQEBBQADggEPADCCAQoCggEBAJtNSPx2JEb/UzW6QoSOS1qz
qxtPiLTfN4AxvDOuxPKbwzBIoKErxt6vJsVPu3PxefwU3Pz/2hKnKytYtwjyeDWH
oJYiGCIyXAMx+IqgL0aj+v/l5Ut3RHO3MogGLBUYLiPoL6v/I0j4vVdtCblmVnxc
NLtKd4h2wK4dFNHwcWdjcfhRQY9rH/s2jrgxv96g8v/Akjl4+5exAI871uAOrXW0
L97NVxjrUHmKtqjJUSEcCbRjgDAbDSruUQk/VoRImZJP9Z102Gn3329w37VvDJVN
pjSWNhm/ggWDvnSP0/52pg/ehD15enGI531b8+4T74uOI72eXJF/91UhauI5pn0C
AwEAAaOCAYUwggGBMAkGA1UdEwQCMAAwEQYJYIZIAYb4QgEBBAQDAgWgMBwGCWCG
SAGG+EIBDQQPFg1tYXN0ZXItY2EgQU1YMB0GA1UdDgQWBBRIyfs2H0Wpz/1CNQlx
trm24ZYWbTCCAQAGA1UdIwSB+DCB9YAUf9Iuh3qlrNcR5iU5o6gAXlQdmrehgdGk
gc4wgcsxCzAJBgNVBAYTAk1YMQ0wCwYDVQQIEwRDRE1YMQwwCgYDVQQHEwMgICAx
FjAUBgNVBAoTDUFtZXJpY2EgTW92aWwxGjAYBgNVBAsTEUNhbmFsZXMgRGlnaXRh
bGVzMRkwFwYDVQQDExBBbWVyaWNhIE1vdmlsIENBMSQwIgYDVQQpExtNYXN0ZXIg
Q2FuYWxlcyBEaWdpdGFsZXMgQ0ExKjAoBgkqhkiG9w0BCQEWG3BhdHJpY2lvQGFt
eGluaWNpYXRpdmFzLmNvbYIJAOXfjP0I5Yv8MBMGA1UdJQQMMAoGCCsGAQUFBwMC
MAsGA1UdDwQEAwIHgDANBgkqhkiG9w0BAQsFAAOCAgEAvdv9i6VKuq3DbOhYRl1J
Gw6u+sJ08pogxV8qjXpaPMYQeEJVJWR54+a1FLaYawS8kaRY60XNfJTqgaqZS+J2
lNXb4S5aDukfqnLedBscgELzwG5EZnzeowjEPc7dVnkP2Qx/bptgMIQznUqG1RIl
oaFiWenmtNK6xLOBE5oggmimptKD3TkaWtNzWKcm624xXESn19k9PK1/khROlUC4
DlhV0kSpz4hwND3iH0xZBGqxn/xUQ+gPcY/4IKydbnpoaCqZNtxJvQC7yRKuqfqn
0QbYa/8cDnZDzFUtuKjoJ2W5bkY+U2tzYMTISmmStrqGyd4Cy2aHdfOMfUKMLNTK
4Izka2z41KFDsoCbpYJbYR58/CU6t5TpKuLSHhQKhe4YYEn/DpidJ3FhwpDjJ89E
oO1OyYUdj2gC2FAHzxx1BOH3Ypmb3oDBRIqYQMV55xhk5YFfY4XX3wYAoPI1USxT
QcSGOFGvAutHczmlcS603JYIDL/8ZXODUORzEQYPQ3vK4jpKfFTy3cMAHxVNFCFl
KKj1frYBSq07bH41LJAAT1VQIbHZsVIvZ9X1d/cLKIWXKksYmW68xpMGiIXDYmq0
0A7SGTB+b+3HK9XOio8MoWtL3CbOGy2joBFFqYeUlPVvqXgOWSe6Aapj6PJKt66b
pWFKs/xLoA/LQOJGup3y34g=
-----END CERTIFICATE-----
