Certificate:
    Data:
        Version: 3 (0x2)
        Serial Number: 2 (0x2)
    Signature Algorithm: sha1WithRSAEncryption
        Issuer: C=MX, ST=CDMX, L=Cdmx, O=Kevops, OU=Kevops, CN=kv/name=server/emailAddress=mail@host.domain
        Validity
            Not Before: May 15 23:34:13 2020 GMT
            Not After : May 13 23:34:13 2030 GMT
        Subject: C=MX, ST=CDMX, L=Cdmx, O=Kevops, OU=Kevops, CN=kevin.gomez/name=server/emailAddress=mail@host.domain
        Subject Public Key Info:
            Public Key Algorithm: rsaEncryption
                Public-Key: (4096 bit)
                Modulus:
                    00:b2:d3:95:10:82:b4:75:04:05:33:8d:bc:87:28:
                    fc:5d:5e:3c:ca:38:33:11:a0:1f:05:8f:12:b8:30:
                    8a:80:d4:10:ae:91:bf:9b:ff:04:2e:af:c1:4a:e5:
                    65:c4:0a:4e:28:95:14:e0:38:8e:ba:a4:a0:0c:17:
                    50:ec:30:8e:cc:e1:46:83:de:42:e6:74:e2:32:84:
                    14:f1:3f:ec:bc:07:c7:49:ab:92:e8:d6:80:0e:9f:
                    4a:4f:35:81:6f:b9:1f:b2:d4:38:73:bc:d3:a5:28:
                    8b:7d:25:04:fb:5a:e7:cd:1b:4a:2f:5f:e3:38:94:
                    dc:c2:a3:4b:01:de:6e:fc:3b:e9:8d:6f:e1:d7:18:
                    32:8c:b9:af:73:43:70:15:65:9d:6f:9d:9c:26:9b:
                    e0:29:14:3a:e0:b1:b3:81:d8:47:41:cb:da:a3:29:
                    bd:29:a8:af:f3:8c:75:ba:16:ba:f7:62:6b:27:2b:
                    73:8c:39:30:a7:2c:6b:1c:b7:b7:ed:7e:87:c3:7e:
                    54:70:44:0a:9b:78:f7:38:f1:fc:62:67:c5:74:d4:
                    b2:50:c0:f8:fb:60:36:ec:84:5a:c7:3b:28:76:75:
                    cd:26:c3:7d:70:50:86:4a:4f:e5:c0:a0:9d:ae:9a:
                    d8:aa:0e:f2:8b:23:ee:df:5c:a2:1e:cf:9e:23:e6:
                    39:69:9b:e4:c8:60:05:a8:2b:d9:65:05:0c:8f:58:
                    c2:10:80:a9:f3:a6:3e:21:07:fc:42:eb:90:c6:28:
                    63:0a:2a:8f:d9:24:af:3d:83:f1:68:98:e1:f0:37:
                    3a:f2:86:b9:4e:e7:f6:a7:3f:27:2d:11:8d:81:e3:
                    aa:3a:6a:64:8d:e8:13:46:5b:18:47:d5:e2:9a:dc:
                    43:5c:d0:f1:65:f5:04:3a:2e:bf:30:de:a1:51:66:
                    ed:0b:29:d9:f3:ec:b5:99:ab:d1:dd:96:a8:3a:4f:
                    84:0c:19:5c:f2:4c:10:30:e1:f0:67:cb:48:f1:09:
                    99:d1:af:dd:e3:43:56:34:4b:82:13:d9:73:4b:e4:
                    83:68:32:e9:91:ca:4f:48:1c:81:76:86:51:c1:95:
                    dd:45:a1:1e:ee:9f:f9:7e:23:46:bf:c1:a2:63:4b:
                    40:9c:99:72:f8:fb:09:2f:53:89:6a:dd:56:6c:98:
                    c2:f2:2e:14:78:d0:1c:89:e7:43:bb:de:3e:44:4c:
                    8c:36:5e:ae:39:55:2a:0a:b7:fe:a9:2b:c9:06:eb:
                    fd:6b:2c:cc:80:97:b2:33:e8:1b:02:f6:22:32:43:
                    e2:3b:76:d9:7a:12:7d:1b:0e:7a:92:3f:cf:7c:aa:
                    9b:b9:a1:58:b8:70:16:6b:0a:df:3f:98:73:5b:1c:
                    4a:dc:77
                Exponent: 65537 (0x10001)
        X509v3 extensions:
            X509v3 Basic Constraints: 
                CA:FALSE
            Netscape Comment: 
                Easy-RSA Generated Certificate
            X509v3 Subject Key Identifier: 
                CE:F5:DB:0F:6C:CB:2C:41:35:29:88:96:0E:4C:53:D8:2E:33:B8:3E
            X509v3 Authority Key Identifier: 
                keyid:2C:DF:74:79:16:2F:05:9B:C1:F9:0E:9E:E8:86:4D:73:7F:6F:A7:04
                DirName:/C=MX/ST=CDMX/L=Cdmx/O=Kevops/OU=Kevops/CN=kv/name=server/emailAddress=mail@host.domain
                serial:92:82:EF:30:8D:2E:2A:51

            X509v3 Extended Key Usage: 
                TLS Web Client Authentication
            X509v3 Key Usage: 
                Digital Signature
    Signature Algorithm: sha1WithRSAEncryption
         8d:9e:df:8b:05:37:3c:b0:bf:4d:e7:81:33:c5:64:ba:76:d8:
         d7:76:a3:6b:cf:35:a5:d5:d5:a6:3e:f8:0f:aa:eb:c4:b9:9b:
         e1:92:b9:fe:d3:0e:47:47:6d:d9:88:f9:c0:84:7d:a4:73:23:
         6e:ef:9a:64:0f:92:47:93:9a:31:1e:90:ac:0d:35:ba:94:e4:
         9a:26:3b:e7:29:a0:60:50:f3:b8:0f:63:53:58:98:a5:6d:48:
         aa:89:6e:c3:2f:05:85:fa:35:e5:01:62:e7:f8:ac:57:6a:26:
         21:00:9c:f0:bd:57:c9:cf:27:73:25:c1:e1:2a:43:a4:50:87:
         c7:bc:c1:28:36:29:bb:68:25:61:18:0f:35:e9:18:0a:f7:68:
         6b:c6:6a:0a:fb:b0:c6:fd:07:ac:47:fd:8a:84:85:47:26:a1:
         f4:ab:c1:9d:c7:c9:d8:e3:69:cd:db:15:e0:6e:2b:1f:eb:55:
         9e:06:37:0a:7e:7f:8d:70:30:53:5c:9a:1c:66:e9:2e:27:fe:
         b4:6d:58:0e:93:8b:41:dc:a0:ff:f5:16:2a:b2:3f:69:04:b2:
         40:ed:11:8a:59:f2:fe:f6:bd:0f:cc:92:3b:f2:82:ff:31:11:
         ac:bb:e2:8a:7e:d5:a3:51:11:13:7f:4b:62:26:64:75:38:f4:
         f2:75:ad:0b:d3:05:3c:87:74:ec:33:93:3c:89:40:47:e3:42:
         17:00:17:08:14:58:cf:f3:31:7f:c1:3a:06:c3:b3:17:35:7d:
         0f:ac:51:00:43:6a:b6:24:de:98:c9:4f:76:f5:61:1f:e3:fc:
         0e:c2:4f:de:b4:7c:28:68:93:08:db:bb:a9:48:14:79:94:2d:
         ca:bb:1c:d7:b8:be:9d:09:bf:f3:3c:2b:86:c8:15:a1:25:8f:
         25:40:f3:70:fa:13:9b:15:f3:97:38:42:ef:5c:db:6c:26:5b:
         ab:b5:c1:70:65:e9:51:cc:3d:d7:46:3b:50:64:ac:87:a9:a5:
         39:8f:64:96:e3:35:46:66:13:27:d0:ca:4e:e6:9e:8d:30:42:
         ed:30:4b:f0:dc:93:70:9a:12:15:0f:ff:b0:fa:42:ae:fa:c5:
         72:45:f6:73:07:d3:d7:e9:92:55:11:c8:6c:79:d5:c6:5f:7c:
         3c:c3:5d:d6:28:31:b1:32:99:1a:6a:3e:14:37:32:5b:8f:1d:
         b0:00:48:43:6a:d0:86:ca:68:1e:fe:0e:7e:b7:96:b9:55:ce:
         e8:57:f7:dd:4f:a8:aa:bd:44:7f:d0:44:8e:cf:56:17:3d:23:
         0d:37:d5:b4:63:fa:a4:75:f5:3d:e2:e4:4b:eb:3b:07:3b:ed:
         0a:89:62:b0:10:11:3e:95
-----BEGIN CERTIFICATE-----
MIIG4zCCBMugAwIBAgIBAjANBgkqhkiG9w0BAQUFADCBjDELMAkGA1UEBhMCTVgx
DTALBgNVBAgTBENETVgxDTALBgNVBAcTBENkbXgxDzANBgNVBAoTBktldm9wczEP
MA0GA1UECxMGS2V2b3BzMQswCQYDVQQDEwJrdjEPMA0GA1UEKRMGc2VydmVyMR8w
HQYJKoZIhvcNAQkBFhBtYWlsQGhvc3QuZG9tYWluMB4XDTIwMDUxNTIzMzQxM1oX
DTMwMDUxMzIzMzQxM1owgZUxCzAJBgNVBAYTAk1YMQ0wCwYDVQQIEwRDRE1YMQ0w
CwYDVQQHEwRDZG14MQ8wDQYDVQQKEwZLZXZvcHMxDzANBgNVBAsTBktldm9wczEU
MBIGA1UEAxMLa2V2aW4uZ29tZXoxDzANBgNVBCkTBnNlcnZlcjEfMB0GCSqGSIb3
DQEJARYQbWFpbEBob3N0LmRvbWFpbjCCAiIwDQYJKoZIhvcNAQEBBQADggIPADCC
AgoCggIBALLTlRCCtHUEBTONvIco/F1ePMo4MxGgHwWPErgwioDUEK6Rv5v/BC6v
wUrlZcQKTiiVFOA4jrqkoAwXUOwwjszhRoPeQuZ04jKEFPE/7LwHx0mrkujWgA6f
Sk81gW+5H7LUOHO806Uoi30lBPta580bSi9f4ziU3MKjSwHebvw76Y1v4dcYMoy5
r3NDcBVlnW+dnCab4CkUOuCxs4HYR0HL2qMpvSmor/OMdboWuvdiaycrc4w5MKcs
axy3t+1+h8N+VHBECpt49zjx/GJnxXTUslDA+PtgNuyEWsc7KHZ1zSbDfXBQhkpP
5cCgna6a2KoO8osj7t9coh7PniPmOWmb5MhgBagr2WUFDI9YwhCAqfOmPiEH/ELr
kMYoYwoqj9kkrz2D8WiY4fA3OvKGuU7n9qc/Jy0RjYHjqjpqZI3oE0ZbGEfV4prc
Q1zQ8WX1BDouvzDeoVFm7Qsp2fPstZmr0d2WqDpPhAwZXPJMEDDh8GfLSPEJmdGv
3eNDVjRLghPZc0vkg2gy6ZHKT0gcgXaGUcGV3UWhHu6f+X4jRr/BomNLQJyZcvj7
CS9TiWrdVmyYwvIuFHjQHInnQ7vePkRMjDZerjlVKgq3/qkryQbr/WsszICXsjPo
GwL2IjJD4jt22XoSfRsOepI/z3yqm7mhWLhwFmsK3z+Yc1scStx3AgMBAAGjggFD
MIIBPzAJBgNVHRMEAjAAMC0GCWCGSAGG+EIBDQQgFh5FYXN5LVJTQSBHZW5lcmF0
ZWQgQ2VydGlmaWNhdGUwHQYDVR0OBBYEFM712w9syyxBNSmIlg5MU9guM7g+MIHB
BgNVHSMEgbkwgbaAFCzfdHkWLwWbwfkOnuiGTXN/b6cEoYGSpIGPMIGMMQswCQYD
VQQGEwJNWDENMAsGA1UECBMEQ0RNWDENMAsGA1UEBxMEQ2RteDEPMA0GA1UEChMG
S2V2b3BzMQ8wDQYDVQQLEwZLZXZvcHMxCzAJBgNVBAMTAmt2MQ8wDQYDVQQpEwZz
ZXJ2ZXIxHzAdBgkqhkiG9w0BCQEWEG1haWxAaG9zdC5kb21haW6CCQCSgu8wjS4q
UTATBgNVHSUEDDAKBggrBgEFBQcDAjALBgNVHQ8EBAMCB4AwDQYJKoZIhvcNAQEF
BQADggIBAI2e34sFNzywv03ngTPFZLp22Nd2o2vPNaXV1aY++A+q68S5m+GSuf7T
DkdHbdmI+cCEfaRzI27vmmQPkkeTmjEekKwNNbqU5JomO+cpoGBQ87gPY1NYmKVt
SKqJbsMvBYX6NeUBYuf4rFdqJiEAnPC9V8nPJ3MlweEqQ6RQh8e8wSg2KbtoJWEY
DzXpGAr3aGvGagr7sMb9B6xH/YqEhUcmofSrwZ3Hydjjac3bFeBuKx/rVZ4GNwp+
f41wMFNcmhxm6S4n/rRtWA6Ti0HcoP/1FiqyP2kEskDtEYpZ8v72vQ/Mkjvygv8x
Eay74op+1aNRERN/S2ImZHU49PJ1rQvTBTyHdOwzkzyJQEfjQhcAFwgUWM/zMX/B
OgbDsxc1fQ+sUQBDarYk3pjJT3b1YR/j/A7CT960fChokwjbu6lIFHmULcq7HNe4
vp0Jv/M8K4bIFaEljyVA83D6E5sV85c4Qu9c22wmW6u1wXBl6VHMPddGO1BkrIep
pTmPZJbjNUZmEyfQyk7mno0wQu0wS/Dck3CaEhUP/7D6Qq76xXJF9nMH09fpklUR
yGx51cZffDzDXdYoMbEymRpqPhQ3MluPHbAASENq0IbKaB7+Dn63lrlVzuhX991P
qKq9RH/QRI7PVhc9Iw031bRj+qR19T3i5EvrOwc77QqJYrAQET6V
-----END CERTIFICATE-----
